; Function Attrs: nounwind uwtable
define internal void @_free_liststeps_info(ptr noundef %0) #0 {
  %2 = alloca ptr, align 8
  call void @llvm.lifetime.start.p0(i64 8, ptr nonnull %2) #16
  store ptr %0, ptr %2, align 8
  %.not = icmp eq ptr %0, null
  br i1 %.not, label %5, label %3

3:                                                ; preds = %1
  %4 = getelementptr inbounds nuw i8, ptr %0, i64 8
  tail call void @slurm_xfree(ptr noundef nonnull %4) #16
  br label %5

5:                                                ; preds = %3, %1
  call void @slurm_xfree(ptr noundef nonnull %2) #16
  call void @llvm.lifetime.end.p0(i64 8, ptr nonnull %2) #16
  ret void
}